; Function Attrs: mustprogress uwtable
define dso_local noundef ptr @_ZNK9FactUnion21get_last_written_typeEv(ptr noundef nonnull align 8 dereferenceable(28) %0) local_unnamed_addr #3 align 2 {
  %2 = load ptr, ptr %0, align 8, !tbaa !4
  %3 = getelementptr inbounds nuw i8, ptr %2, i64 48
  %4 = load ptr, ptr %3, align 8
  %5 = tail call noundef zeroext i1 %4(ptr noundef nonnull align 8 dereferenceable(28) %0)
  br i1 %5, label %23, label %6

6:                                                ; preds = %1
  %7 = load ptr, ptr %0, align 8, !tbaa !4
  %8 = getelementptr inbounds nuw i8, ptr %7, i64 56
  %9 = load ptr, ptr %8, align 8
  %10 = tail call noundef zeroext i1 %9(ptr noundef nonnull align 8 dereferenceable(28) %0)
  br i1 %10, label %23, label %11

11:                                               ; preds = %6
  %12 = getelementptr inbounds nuw i8, ptr %0, i64 16
  %13 = load ptr, ptr %12, align 8, !tbaa !7
  %14 = getelementptr inbounds nuw i8, ptr %13, i64 8
  %15 = getelementptr inbounds nuw i8, ptr %0, i64 24
  %16 = load i32, ptr %15, align 8, !tbaa !15
  %17 = sext i32 %16 to i64
  %18 = load ptr, ptr %14, align 8, !tbaa !16
  %19 = getelementptr inbounds nuw ptr, ptr %18, i64 %17
  %20 = load ptr, ptr %19, align 8, !tbaa !19
  %21 = getelementptr inbounds nuw i8, ptr %20, i64 64
  %22 = load ptr, ptr %21, align 8, !tbaa !20
  br label %23

23:                                               ; preds = %1, %6, %11
  %.0 = phi ptr [ %22, %11 ], [ null, %6 ], [ null, %1 ]
  ret ptr %.0
}